(lp0
(S'cppflags'
p1
ccopy_reg
_reconstructor
p2
(cino.utils
SpaceList
p3
c__builtin__
list
p4
(lp5
S'-mmcu=atmega328p'
p6
aS'-DF_CPU=16000000L'
p7
aS'-DARDUINO=105'
p8
aS'-I/usr/share/arduino/hardware/arduino/cores/arduino'
p9
aS'-ffunction-sections'
p10
aS'-fdata-sections'
p11
aS'-g'
p12
aS'-Os'
p13
aS'-w'
p14
aS'-I/usr/share/arduino/hardware/arduino/variants/standard'
p15
aS'-I/usr/share/arduino/libraries/Robot_Control'
p16
aS'-I/usr/share/arduino/libraries/Robot_Control/utility'
p17
aS'-Ilib/ros_lib'
p18
aS'-Ilib/ros_lib/roscpp_tutorials'
p19
aS'-Ilib/ros_lib/stereo_msgs'
p20
aS'-Ilib/ros_lib/smach_msgs'
p21
aS'-Ilib/ros_lib/laser_assembler'
p22
aS'-Ilib/ros_lib/trajectory_msgs'
p23
aS'-Ilib/ros_lib/rosserial_msgs'
p24
aS'-Ilib/ros_lib/nodelet'
p25
aS'-Ilib/ros_lib/control_msgs'
p26
aS'-Ilib/ros_lib/visualization_msgs'
p27
aS'-Ilib/ros_lib/geometry_msgs'
p28
aS'-Ilib/ros_lib/turtlesim'
p29
aS'-Ilib/ros_lib/polled_camera'
p30
aS'-Ilib/ros_lib/tests'
p31
aS'-Ilib/ros_lib/shape_msgs'
p32
aS'-Ilib/ros_lib/rosgraph_msgs'
p33
aS'-Ilib/ros_lib/topic_tools'
p34
aS'-Ilib/ros_lib/pcl_msgs'
p35
aS'-Ilib/ros_lib/actionlib'
p36
aS'-Ilib/ros_lib/std_srvs'
p37
aS'-Ilib/ros_lib/rosserial_mbed'
p38
aS'-Ilib/ros_lib/tf2_msgs'
p39
aS'-Ilib/ros_lib/dynamic_reconfigure'
p40
aS'-Ilib/ros_lib/gazebo_msgs'
p41
aS'-Ilib/ros_lib/rospy_tutorials'
p42
aS'-Ilib/ros_lib/ros'
p43
aS'-Ilib/ros_lib/nav_msgs'
p44
aS'-Ilib/ros_lib/std_msgs'
p45
aS'-Ilib/ros_lib/tf'
p46
aS'-Ilib/ros_lib/actionlib_tutorials'
p47
aS'-Ilib/ros_lib/theora_image_transport'
p48
aS'-Ilib/ros_lib/sensor_msgs'
p49
aS'-Ilib/ros_lib/diagnostic_msgs'
p50
aS'-Ilib/ros_lib/turtle_actionlib'
p51
aS'-Ilib/ros_lib/actionlib_msgs'
p52
aS'-Ilib/ros_lib/map_msgs'
p53
aS'-Ilib/ros_lib/controller_manager_msgs'
p54
aS'-Ilib/ros_lib/bond'
p55
aS'-Ilib/ros_lib/control_toolbox'
p56
aS'-Ilib/ros_lib/roscpp'
p57
aS'-Ilib/ros_lib/tests/array_test'
p58
aS'-Ilib/ros_lib/tests/time_test'
p59
aS'-Ilib/ros_lib/tests/float64_test'
p60
aS'-I/usr/share/arduino/hardware/arduino/cores/arduino'
p61
aS'-I/usr/share/arduino/hardware/arduino/cores/arduino/avr-libc'
p62
atp63
Rp64
tp65
a(S'cxx'
p66
S'/usr/share/arduino/hardware/tools/avr/bin/avr-g++'
p67
tp68
a(S'version.txt'
p69
S'/usr/share/arduino/lib/version.txt'
p70
tp71
a(S'used_libs'
p72
(lp73
S'/usr/share/arduino/libraries/Robot_Control'
p74
aS'lib/ros_lib'
p75
aS'/usr/share/arduino/hardware/arduino/cores/arduino'
p76
atp77
a(S'cc'
p78
S'/usr/share/arduino/hardware/tools/avr/bin/avr-gcc'
p79
tp80
a(S'make'
p81
S'/usr/share/arduino/hardware/tools/avr/bin/make'
p82
tp83
a(S'cflags'
p84
g2
(g3
g4
(lp85
tp86
Rp87
tp88
a(S'build_dir'
p89
S'.build/uno'
p90
tp91
a(S'arduino_core_dir'
p92
g76
tp93
a(S'boards.txt'
p94
S'/usr/share/arduino/hardware/arduino/boards.txt'
p95
tp96
a(S'cxxflags'
p97
g2
(g3
g4
(lp98
S'-fno-exceptions'
p99
atp100
Rp101
tp102
a(S'arduino_variants_dir'
p103
S'/usr/share/arduino/hardware/arduino/variants'
p104
tp105
a(S'ar'
p106
S'/usr/share/arduino/hardware/tools/avr/bin/avr-ar'
p107
tp108
a(S'names'
p109
(dp110
S'cpp'
p111
S'%s.cpp'
p112
sS'obj'
p113
S'%s.o'
p114
sS'deps'
p115
S'%s.d'
p116
sS'lib'
p117
S'lib%s.a'
p118
stp119
a(S'deps'
p120
g2
(g3
g4
(lp121
S'.build/uno/src/dependencies.d'
p122
aS'.build/uno/arduino/dependencies.d'
p123
aS'.build/uno/Robot_Control/dependencies.d'
p124
aS'.build/uno/ros_lib/dependencies.d'
p125
atp126
Rp127
tp128
a(S'arduino_libraries_dir'
p129
S'/usr/share/arduino/libraries'
p130
tp131
a(S'arduino_lib_version'
p132
g2
(cino.environment
Version
p133
c__builtin__
tuple
p134
(I1
I0
I5
tp135
tp136
Rp137
tp138
a(S'objcopy'
p139
S'/usr/share/arduino/hardware/tools/avr/bin/avr-objcopy'
p140
tp141
a(S'board_models'
p142
cino.environment
BoardModels
p143
((lp144
(lp145
S'uno'
p146
a(dp147
S'bootloader'
p148
(dp149
S'extended_fuses'
p150
S'0xfd'
p151
sS'high_fuses'
p152
S'0xde'
p153
sS'low_fuses'
p154
S'0xff'
p155
sS'lock_bits'
p156
S'0xcf'
p157
sS'file'
p158
S'optiboot_atmega328.hex'
p159
sS'path'
p160
S'optiboot'
p161
sS'unlock_bits'
p162
S'0xff'
p163
ssS'upload'
p164
(dp165
S'protocol'
p166
S'arduino'
p167
sS'maximum_size'
p168
S'32256'
p169
sS'speed'
p170
S'115200'
p171
ssS'build'
p172
(dp173
S'core'
p174
S'arduino'
p175
sS'mcu'
p176
S'atmega328p'
p177
sS'f_cpu'
p178
S'16000000L'
p179
sS'variant'
p180
S'standard'
p181
ssS'name'
p182
S'Arduino Uno'
p183
saa(lp184
S'atmega328'
p185
a(dp186
S'bootloader'
p187
(dp188
S'extended_fuses'
p189
S'0xfd'
p190
sS'high_fuses'
p191
S'0xDA'
p192
sS'low_fuses'
p193
S'0xFF'
p194
sS'lock_bits'
p195
S'0xcf'
p196
sS'file'
p197
S'ATmegaBOOT_168_atmega328.hex'
p198
sS'path'
p199
S'atmega'
p200
sS'unlock_bits'
p201
S'0xff'
p202
ssS'upload'
p203
(dp204
S'protocol'
p205
S'arduino'
p206
sS'maximum_size'
p207
S'30720'
p208
sS'speed'
p209
S'57600'
p210
ssS'build'
p211
(dp212
S'core'
p213
S'arduino'
p214
sS'mcu'
p215
S'atmega328p'
p216
sS'f_cpu'
p217
S'16000000L'
p218
sS'variant'
p219
S'standard'
p220
ssS'name'
p221
S'Arduino Duemilanove w/ ATmega328'
p222
saa(lp223
S'diecimila'
p224
a(dp225
S'bootloader'
p226
(dp227
S'extended_fuses'
p228
S'0xf8'
p229
sS'high_fuses'
p230
S'0xdd'
p231
sS'low_fuses'
p232
S'0xff'
p233
sS'lock_bits'
p234
S'0xcf'
p235
sS'file'
p236
S'ATmegaBOOT_168_diecimila.hex'
p237
sS'path'
p238
S'atmega'
p239
sS'unlock_bits'
p240
S'0xff'
p241
ssS'upload'
p242
(dp243
S'protocol'
p244
S'arduino'
p245
sS'maximum_size'
p246
S'14336'
p247
sS'speed'
p248
S'19200'
p249
ssS'build'
p250
(dp251
S'core'
p252
S'arduino'
p253
sS'mcu'
p254
S'atmega168'
p255
sS'f_cpu'
p256
S'16000000L'
p257
sS'variant'
p258
S'standard'
p259
ssS'name'
p260
S'Arduino Diecimila or Duemilanove w/ ATmega168'
p261
saa(lp262
S'nano328'
p263
a(dp264
S'bootloader'
p265
(dp266
S'extended_fuses'
p267
S'0xfd'
p268
sS'high_fuses'
p269
S'0xDA'
p270
sS'low_fuses'
p271
S'0xFF'
p272
sS'lock_bits'
p273
S'0xcf'
p274
sS'file'
p275
S'ATmegaBOOT_168_atmega328.hex'
p276
sS'path'
p277
S'atmega'
p278
sS'unlock_bits'
p279
S'0xff'
p280
ssS'upload'
p281
(dp282
S'protocol'
p283
S'arduino'
p284
sS'maximum_size'
p285
S'30720'
p286
sS'speed'
p287
S'57600'
p288
ssS'build'
p289
(dp290
S'core'
p291
S'arduino'
p292
sS'mcu'
p293
S'atmega328p'
p294
sS'f_cpu'
p295
S'16000000L'
p296
sS'variant'
p297
S'eightanaloginputs'
p298
ssS'name'
p299
S'Arduino Nano w/ ATmega328'
p300
saa(lp301
S'nano'
p302
a(dp303
S'bootloader'
p304
(dp305
S'extended_fuses'
p306
S'0xf8'
p307
sS'high_fuses'
p308
S'0xdd'
p309
sS'low_fuses'
p310
S'0xff'
p311
sS'lock_bits'
p312
S'0xcf'
p313
sS'file'
p314
S'ATmegaBOOT_168_diecimila.hex'
p315
sS'path'
p316
S'atmega'
p317
sS'unlock_bits'
p318
S'0xff'
p319
ssS'upload'
p320
(dp321
S'protocol'
p322
S'arduino'
p323
sS'maximum_size'
p324
S'14336'
p325
sS'speed'
p326
S'19200'
p327
ssS'build'
p328
(dp329
S'core'
p330
S'arduino'
p331
sS'mcu'
p332
S'atmega168'
p333
sS'f_cpu'
p334
S'16000000L'
p335
sS'variant'
p336
S'eightanaloginputs'
p337
ssS'name'
p338
S'Arduino Nano w/ ATmega168'
p339
saa(lp340
S'mega2560'
p341
a(dp342
S'bootloader'
p343
(dp344
S'extended_fuses'
p345
S'0xFD'
p346
sS'high_fuses'
p347
S'0xD8'
p348
sS'low_fuses'
p349
S'0xFF'
p350
sS'lock_bits'
p351
S'0xcf'
p352
sS'file'
p353
S'stk500boot_v2_mega2560.hex'
p354
sS'path'
p355
S'stk500v2'
p356
sS'unlock_bits'
p357
S'0xff'
p358
ssS'upload'
p359
(dp360
S'protocol'
p361
S'wiring'
p362
sS'maximum_size'
p363
S'258048'
p364
sS'speed'
p365
S'115200'
p366
ssS'build'
p367
(dp368
S'core'
p369
S'arduino'
p370
sS'mcu'
p371
S'atmega2560'
p372
sS'f_cpu'
p373
S'16000000L'
p374
sS'variant'
p375
S'mega'
p376
ssS'name'
p377
S'Arduino Mega 2560 or Mega ADK'
p378
saa(lp379
S'mega'
p380
a(dp381
S'bootloader'
p382
(dp383
S'extended_fuses'
p384
S'0xF5'
p385
sS'high_fuses'
p386
S'0xDA'
p387
sS'low_fuses'
p388
S'0xFF'
p389
sS'lock_bits'
p390
S'0xcf'
p391
sS'file'
p392
S'ATmegaBOOT_168_atmega1280.hex'
p393
sS'path'
p394
S'atmega'
p395
sS'unlock_bits'
p396
S'0xff'
p397
ssS'upload'
p398
(dp399
S'protocol'
p400
S'arduino'
p401
sS'maximum_size'
p402
S'126976'
p403
sS'speed'
p404
S'57600'
p405
ssS'build'
p406
(dp407
S'core'
p408
S'arduino'
p409
sS'mcu'
p410
S'atmega1280'
p411
sS'f_cpu'
p412
S'16000000L'
p413
sS'variant'
p414
S'mega'
p415
ssS'name'
p416
S'Arduino Mega (ATmega1280)'
p417
saa(lp418
S'leonardo'
p419
a(dp420
S'bootloader'
p421
(dp422
S'extended_fuses'
p423
S'0xcb'
p424
sS'high_fuses'
p425
S'0xd8'
p426
sS'low_fuses'
p427
S'0xff'
p428
sS'lock_bits'
p429
S'0xef'
p430
sS'file'
p431
S'Caterina-Leonardo.hex'
p432
sS'path'
p433
S'caterina'
p434
sS'unlock_bits'
p435
S'0xff'
p436
ssS'upload'
p437
(dp438
S'protocol'
p439
S'avr109'
p440
sS'maximum_size'
p441
S'28672'
p442
sS'speed'
p443
S'57600'
p444
sS'disable_flushing'
p445
S'true'
p446
ssS'build'
p447
(dp448
S'core'
p449
S'arduino'
p450
sS'f_cpu'
p451
S'16000000L'
p452
sS'vid'
p453
S'0x2341'
p454
sS'pid'
p455
S'0x8036'
p456
sS'variant'
p457
S'leonardo'
p458
sS'mcu'
p459
S'atmega32u4'
p460
ssS'name'
p461
S'Arduino Leonardo'
p462
saa(lp463
S'esplora'
p464
a(dp465
S'bootloader'
p466
(dp467
S'extended_fuses'
p468
S'0xcb'
p469
sS'high_fuses'
p470
S'0xd8'
p471
sS'low_fuses'
p472
S'0xff'
p473
sS'lock_bits'
p474
S'0xef'
p475
sS'file'
p476
S'Caterina-Esplora.hex'
p477
sS'path'
p478
S'caterina'
p479
sS'unlock_bits'
p480
S'0xff'
p481
ssS'upload'
p482
(dp483
S'protocol'
p484
S'avr109'
p485
sS'maximum_size'
p486
S'28672'
p487
sS'speed'
p488
S'57600'
p489
sS'disable_flushing'
p490
S'true'
p491
ssS'build'
p492
(dp493
S'core'
p494
S'arduino'
p495
sS'f_cpu'
p496
S'16000000L'
p497
sS'vid'
p498
S'0x2341'
p499
sS'pid'
p500
S'0x803C'
p501
sS'variant'
p502
S'leonardo'
p503
sS'mcu'
p504
S'atmega32u4'
p505
ssS'name'
p506
S'Arduino Esplora'
p507
saa(lp508
S'micro'
p509
a(dp510
S'bootloader'
p511
(dp512
S'extended_fuses'
p513
S'0xcb'
p514
sS'high_fuses'
p515
S'0xd8'
p516
sS'low_fuses'
p517
S'0xff'
p518
sS'lock_bits'
p519
S'0xef'
p520
sS'file'
p521
S'Caterina-Micro.hex'
p522
sS'path'
p523
S'caterina'
p524
sS'unlock_bits'
p525
S'0xff'
p526
ssS'upload'
p527
(dp528
S'protocol'
p529
S'avr109'
p530
sS'maximum_size'
p531
S'28672'
p532
sS'speed'
p533
S'57600'
p534
sS'disable_flushing'
p535
S'true'
p536
ssS'build'
p537
(dp538
S'core'
p539
S'arduino'
p540
sS'f_cpu'
p541
S'16000000L'
p542
sS'vid'
p543
S'0x2341'
p544
sS'pid'
p545
S'0x8037'
p546
sS'variant'
p547
S'micro'
p548
sS'mcu'
p549
S'atmega32u4'
p550
ssS'name'
p551
S'Arduino Micro'
p552
saa(lp553
S'mini328'
p554
a(dp555
S'bootloader'
p556
(dp557
S'extended_fuses'
p558
S'0xfd'
p559
sS'high_fuses'
p560
S'0xd8'
p561
sS'low_fuses'
p562
S'0xff'
p563
sS'lock_bits'
p564
S'0xcf'
p565
sS'file'
p566
S'optiboot_atmega328-Mini.hex'
p567
sS'path'
p568
S'optiboot'
p569
sS'unlock_bits'
p570
S'0xff'
p571
ssS'upload'
p572
(dp573
S'protocol'
p574
S'arduino'
p575
sS'maximum_size'
p576
S'28672'
p577
sS'speed'
p578
S'115200'
p579
ssS'build'
p580
(dp581
S'core'
p582
S'arduino'
p583
sS'mcu'
p584
S'atmega328p'
p585
sS'f_cpu'
p586
S'16000000L'
p587
sS'variant'
p588
S'eightanaloginputs'
p589
ssS'name'
p590
S'Arduino Mini w/ ATmega328'
p591
saa(lp592
S'mini'
p593
a(dp594
S'bootloader'
p595
(dp596
S'extended_fuses'
p597
S'0xf8'
p598
sS'high_fuses'
p599
S'0xdd'
p600
sS'low_fuses'
p601
S'0xff'
p602
sS'lock_bits'
p603
S'0xcf'
p604
sS'file'
p605
S'ATmegaBOOT_168_ng.hex'
p606
sS'path'
p607
S'atmega'
p608
sS'unlock_bits'
p609
S'0xff'
p610
ssS'upload'
p611
(dp612
S'protocol'
p613
S'arduino'
p614
sS'maximum_size'
p615
S'14336'
p616
sS'speed'
p617
S'19200'
p618
ssS'build'
p619
(dp620
S'core'
p621
S'arduino'
p622
sS'mcu'
p623
S'atmega168'
p624
sS'f_cpu'
p625
S'16000000L'
p626
sS'variant'
p627
S'eightanaloginputs'
p628
ssS'name'
p629
S'Arduino Mini w/ ATmega168'
p630
saa(lp631
S'ethernet'
p632
a(dp633
S'bootloader'
p634
(dp635
S'extended_fuses'
p636
S'0xfd'
p637
sS'high_fuses'
p638
S'0xde'
p639
sS'low_fuses'
p640
S'0xff'
p641
sS'lock_bits'
p642
S'0xcf'
p643
sS'file'
p644
S'optiboot_atmega328.hex'
p645
sS'path'
p646
S'optiboot'
p647
sS'unlock_bits'
p648
S'0xff'
p649
ssS'upload'
p650
(dp651
S'protocol'
p652
S'arduino'
p653
sS'maximum_size'
p654
S'32256'
p655
sS'speed'
p656
S'115200'
p657
ssS'build'
p658
(dp659
S'variant'
p660
S'standard'
p661
sS'mcu'
p662
S'atmega328p'
p663
sS'f_cpu'
p664
S'16000000L'
p665
sS'core'
p666
S'arduino'
p667
ssS'name'
p668
S'Arduino Ethernet'
p669
saa(lp670
S'fio'
p671
a(dp672
S'bootloader'
p673
(dp674
S'extended_fuses'
p675
S'0xfd'
p676
sS'high_fuses'
p677
S'0xDA'
p678
sS'low_fuses'
p679
S'0xFF'
p680
sS'lock_bits'
p681
S'0xcf'
p682
sS'file'
p683
S'ATmegaBOOT_168_atmega328_pro_8MHz.hex'
p684
sS'path'
p685
S'arduino:atmega'
p686
sS'unlock_bits'
p687
S'0xff'
p688
ssS'upload'
p689
(dp690
S'protocol'
p691
S'arduino'
p692
sS'maximum_size'
p693
S'30720'
p694
sS'speed'
p695
S'57600'
p696
ssS'build'
p697
(dp698
S'core'
p699
S'arduino'
p700
sS'mcu'
p701
S'atmega328p'
p702
sS'f_cpu'
p703
S'8000000L'
p704
sS'variant'
p705
S'eightanaloginputs'
p706
ssS'name'
p707
S'Arduino Fio'
p708
saa(lp709
S'bt328'
p710
a(dp711
S'bootloader'
p712
(dp713
S'extended_fuses'
p714
S'0xfd'
p715
sS'high_fuses'
p716
S'0xd8'
p717
sS'low_fuses'
p718
S'0xff'
p719
sS'lock_bits'
p720
S'0xcf'
p721
sS'file'
p722
S'ATmegaBOOT_168_atmega328_bt.hex'
p723
sS'path'
p724
S'bt'
p725
sS'unlock_bits'
p726
S'0xff'
p727
ssS'upload'
p728
(dp729
S'protocol'
p730
S'arduino'
p731
sS'maximum_size'
p732
S'28672'
p733
sS'speed'
p734
S'19200'
p735
sS'disable_flushing'
p736
S'true'
p737
ssS'build'
p738
(dp739
S'core'
p740
S'arduino'
p741
sS'mcu'
p742
S'atmega328p'
p743
sS'f_cpu'
p744
S'16000000L'
p745
sS'variant'
p746
S'eightanaloginputs'
p747
ssS'name'
p748
S'Arduino BT w/ ATmega328'
p749
saa(lp750
S'bt'
p751
a(dp752
S'bootloader'
p753
(dp754
S'extended_fuses'
p755
S'0xf8'
p756
sS'high_fuses'
p757
S'0xdd'
p758
sS'low_fuses'
p759
S'0xff'
p760
sS'lock_bits'
p761
S'0xcf'
p762
sS'file'
p763
S'ATmegaBOOT_168.hex'
p764
sS'path'
p765
S'bt'
p766
sS'unlock_bits'
p767
S'0xff'
p768
ssS'upload'
p769
(dp770
S'protocol'
p771
S'arduino'
p772
sS'maximum_size'
p773
S'14336'
p774
sS'speed'
p775
S'19200'
p776
sS'disable_flushing'
p777
S'true'
p778
ssS'build'
p779
(dp780
S'core'
p781
S'arduino'
p782
sS'mcu'
p783
S'atmega168'
p784
sS'f_cpu'
p785
S'16000000L'
p786
sS'variant'
p787
S'eightanaloginputs'
p788
ssS'name'
p789
S'Arduino BT w/ ATmega168'
p790
saa(lp791
S'LilyPadUSB'
p792
a(dp793
S'bootloader'
p794
(dp795
S'extended_fuses'
p796
S'0xce'
p797
sS'high_fuses'
p798
S'0xd8'
p799
sS'low_fuses'
p800
S'0xff'
p801
sS'lock_bits'
p802
S'0xef'
p803
sS'file'
p804
S'Caterina-LilyPadUSB.hex'
p805
sS'path'
p806
S'caterina-LilyPadUSB'
p807
sS'unlock_bits'
p808
S'0xff'
p809
ssS'upload'
p810
(dp811
S'protocol'
p812
S'avr109'
p813
sS'maximum_size'
p814
S'28672'
p815
sS'speed'
p816
S'57600'
p817
sS'disable_flushing'
p818
S'true'
p819
ssS'build'
p820
(dp821
S'core'
p822
S'arduino'
p823
sS'f_cpu'
p824
S'8000000L'
p825
sS'vid'
p826
S'0x1B4F'
p827
sS'pid'
p828
S'0x9208'
p829
sS'variant'
p830
S'leonardo'
p831
sS'mcu'
p832
S'atmega32u4'
p833
ssS'name'
p834
S'LilyPad Arduino USB'
p835
saa(lp836
S'lilypad328'
p837
a(dp838
S'bootloader'
p839
(dp840
S'extended_fuses'
p841
S'0xfd'
p842
sS'high_fuses'
p843
S'0xDA'
p844
sS'low_fuses'
p845
S'0xFF'
p846
sS'lock_bits'
p847
S'0xcf'
p848
sS'file'
p849
S'ATmegaBOOT_168_atmega328_pro_8MHz.hex'
p850
sS'path'
p851
S'atmega'
p852
sS'unlock_bits'
p853
S'0xff'
p854
ssS'upload'
p855
(dp856
S'protocol'
p857
S'arduino'
p858
sS'maximum_size'
p859
S'30720'
p860
sS'speed'
p861
S'57600'
p862
ssS'build'
p863
(dp864
S'core'
p865
S'arduino'
p866
sS'mcu'
p867
S'atmega328p'
p868
sS'f_cpu'
p869
S'8000000L'
p870
sS'variant'
p871
S'standard'
p872
ssS'name'
p873
S'LilyPad Arduino w/ ATmega328'
p874
saa(lp875
S'lilypad'
p876
a(dp877
S'bootloader'
p878
(dp879
S'extended_fuses'
p880
S'0xf8'
p881
sS'high_fuses'
p882
S'0xdd'
p883
sS'low_fuses'
p884
S'0xe2'
p885
sS'lock_bits'
p886
S'0xcf'
p887
sS'file'
p888
S'LilyPadBOOT_168.hex'
p889
sS'path'
p890
S'lilypad'
p891
sS'unlock_bits'
p892
S'0xff'
p893
ssS'upload'
p894
(dp895
S'protocol'
p896
S'arduino'
p897
sS'maximum_size'
p898
S'14336'
p899
sS'speed'
p900
S'19200'
p901
ssS'build'
p902
(dp903
S'core'
p904
S'arduino'
p905
sS'mcu'
p906
S'atmega168'
p907
sS'f_cpu'
p908
S'8000000L'
p909
sS'variant'
p910
S'standard'
p911
ssS'name'
p912
S'LilyPad Arduino w/ ATmega168'
p913
saa(lp914
S'pro5v328'
p915
a(dp916
S'bootloader'
p917
(dp918
S'extended_fuses'
p919
S'0xfd'
p920
sS'high_fuses'
p921
S'0xDA'
p922
sS'low_fuses'
p923
S'0xFF'
p924
sS'lock_bits'
p925
S'0xcf'
p926
sS'file'
p927
S'ATmegaBOOT_168_atmega328.hex'
p928
sS'path'
p929
S'atmega'
p930
sS'unlock_bits'
p931
S'0xff'
p932
ssS'upload'
p933
(dp934
S'protocol'
p935
S'arduino'
p936
sS'maximum_size'
p937
S'30720'
p938
sS'speed'
p939
S'57600'
p940
ssS'build'
p941
(dp942
S'core'
p943
S'arduino'
p944
sS'mcu'
p945
S'atmega328p'
p946
sS'f_cpu'
p947
S'16000000L'
p948
sS'variant'
p949
S'standard'
p950
ssS'name'
p951
S'Arduino Pro or Pro Mini (5V, 16 MHz) w/ ATmega328'
p952
saa(lp953
S'pro5v'
p954
a(dp955
S'bootloader'
p956
(dp957
S'extended_fuses'
p958
S'0xf8'
p959
sS'high_fuses'
p960
S'0xdd'
p961
sS'low_fuses'
p962
S'0xff'
p963
sS'lock_bits'
p964
S'0xcf'
p965
sS'file'
p966
S'ATmegaBOOT_168_diecimila.hex'
p967
sS'path'
p968
S'atmega'
p969
sS'unlock_bits'
p970
S'0xff'
p971
ssS'upload'
p972
(dp973
S'protocol'
p974
S'arduino'
p975
sS'maximum_size'
p976
S'14336'
p977
sS'speed'
p978
S'19200'
p979
ssS'build'
p980
(dp981
S'core'
p982
S'arduino'
p983
sS'mcu'
p984
S'atmega168'
p985
sS'f_cpu'
p986
S'16000000L'
p987
sS'variant'
p988
S'standard'
p989
ssS'name'
p990
S'Arduino Pro or Pro Mini (5V, 16 MHz) w/ ATmega168'
p991
saa(lp992
S'pro328'
p993
a(dp994
S'bootloader'
p995
(dp996
S'extended_fuses'
p997
S'0xfd'
p998
sS'high_fuses'
p999
S'0xDA'
p1000
sS'low_fuses'
p1001
S'0xFF'
p1002
sS'lock_bits'
p1003
S'0xcf'
p1004
sS'file'
p1005
S'ATmegaBOOT_168_atmega328_pro_8MHz.hex'
p1006
sS'path'
p1007
S'atmega'
p1008
sS'unlock_bits'
p1009
S'0xff'
p1010
ssS'upload'
p1011
(dp1012
S'protocol'
p1013
S'arduino'
p1014
sS'maximum_size'
p1015
S'30720'
p1016
sS'speed'
p1017
S'57600'
p1018
ssS'build'
p1019
(dp1020
S'core'
p1021
S'arduino'
p1022
sS'mcu'
p1023
S'atmega328p'
p1024
sS'f_cpu'
p1025
S'8000000L'
p1026
sS'variant'
p1027
S'standard'
p1028
ssS'name'
p1029
S'Arduino Pro or Pro Mini (3.3V, 8 MHz) w/ ATmega328'
p1030
saa(lp1031
S'pro'
p1032
a(dp1033
S'bootloader'
p1034
(dp1035
S'extended_fuses'
p1036
S'0xf8'
p1037
sS'high_fuses'
p1038
S'0xdd'
p1039
sS'low_fuses'
p1040
S'0xc6'
p1041
sS'lock_bits'
p1042
S'0xcf'
p1043
sS'file'
p1044
S'ATmegaBOOT_168_pro_8MHz.hex'
p1045
sS'path'
p1046
S'atmega'
p1047
sS'unlock_bits'
p1048
S'0xff'
p1049
ssS'upload'
p1050
(dp1051
S'protocol'
p1052
S'arduino'
p1053
sS'maximum_size'
p1054
S'14336'
p1055
sS'speed'
p1056
S'19200'
p1057
ssS'build'
p1058
(dp1059
S'core'
p1060
S'arduino'
p1061
sS'mcu'
p1062
S'atmega168'
p1063
sS'f_cpu'
p1064
S'8000000L'
p1065
sS'variant'
p1066
S'standard'
p1067
ssS'name'
p1068
S'Arduino Pro or Pro Mini (3.3V, 8 MHz) w/ ATmega168'
p1069
saa(lp1070
S'atmega168'
p1071
a(dp1072
S'bootloader'
p1073
(dp1074
S'extended_fuses'
p1075
S'0xf8'
p1076
sS'high_fuses'
p1077
S'0xdd'
p1078
sS'low_fuses'
p1079
S'0xff'
p1080
sS'lock_bits'
p1081
S'0xcf'
p1082
sS'file'
p1083
S'ATmegaBOOT_168_ng.hex'
p1084
sS'path'
p1085
S'atmega'
p1086
sS'unlock_bits'
p1087
S'0xff'
p1088
ssS'upload'
p1089
(dp1090
S'protocol'
p1091
S'arduino'
p1092
sS'maximum_size'
p1093
S'14336'
p1094
sS'speed'
p1095
S'19200'
p1096
ssS'build'
p1097
(dp1098
S'core'
p1099
S'arduino'
p1100
sS'mcu'
p1101
S'atmega168'
p1102
sS'f_cpu'
p1103
S'16000000L'
p1104
sS'variant'
p1105
S'standard'
p1106
ssS'name'
p1107
S'Arduino NG or older w/ ATmega168'
p1108
saa(lp1109
S'atmega8'
p1110
a(dp1111
S'bootloader'
p1112
(dp1113
S'high_fuses'
p1114
S'0xca'
p1115
sS'low_fuses'
p1116
S'0xdf'
p1117
sS'lock_bits'
p1118
S'0xcf'
p1119
sS'file'
p1120
S'ATmegaBOOT-prod-firmware-2009-11-07.hex'
p1121
sS'path'
p1122
S'atmega8'
p1123
sS'unlock_bits'
p1124
S'0xff'
p1125
ssS'upload'
p1126
(dp1127
S'protocol'
p1128
S'arduino'
p1129
sS'maximum_size'
p1130
S'7168'
p1131
sS'speed'
p1132
S'19200'
p1133
ssS'build'
p1134
(dp1135
S'core'
p1136
S'arduino'
p1137
sS'mcu'
p1138
S'atmega8'
p1139
sS'f_cpu'
p1140
S'16000000L'
p1141
sS'variant'
p1142
S'standard'
p1143
ssS'name'
p1144
S'Arduino NG or older w/ ATmega8'
p1145
saa(lp1146
S'robotControl'
p1147
a(dp1148
S'bootloader'
p1149
(dp1150
S'extended_fuses'
p1151
S'0xcb'
p1152
sS'high_fuses'
p1153
S'0xd8'
p1154
sS'low_fuses'
p1155
S'0xff'
p1156
sS'lock_bits'
p1157
S'0xef'
p1158
sS'file'
p1159
S'Caterina-Robot-Control.hex'
p1160
sS'path'
p1161
S'caterina-Arduino_Robot'
p1162
sS'unlock_bits'
p1163
S'0xff'
p1164
ssS'upload'
p1165
(dp1166
S'protocol'
p1167
S'avr109'
p1168
sS'maximum_size'
p1169
S'28672'
p1170
sS'speed'
p1171
S'57600'
p1172
sS'disable_flushing'
p1173
S'true'
p1174
ssS'build'
p1175
(dp1176
S'core'
p1177
S'robot'
p1178
sS'f_cpu'
p1179
S'16000000L'
p1180
sS'vid'
p1181
S'0x2341'
p1182
sS'pid'
p1183
S'0x8038'
p1184
sS'variant'
p1185
S'robot_control'
p1186
sS'mcu'
p1187
S'atmega32u4'
p1188
ssS'name'
p1189
S'Arduino Robot Control'
p1190
saa(lp1191
S'robotMotor'
p1192
a(dp1193
S'bootloader'
p1194
(dp1195
S'extended_fuses'
p1196
S'0xcb'
p1197
sS'high_fuses'
p1198
S'0xd8'
p1199
sS'low_fuses'
p1200
S'0xff'
p1201
sS'lock_bits'
p1202
S'0xef'
p1203
sS'file'
p1204
S'Caterina-Robot-Motor.hex'
p1205
sS'path'
p1206
S'caterina-Arduino_Robot'
p1207
sS'unlock_bits'
p1208
S'0xff'
p1209
ssS'upload'
p1210
(dp1211
S'protocol'
p1212
S'avr109'
p1213
sS'maximum_size'
p1214
S'28672'
p1215
sS'speed'
p1216
S'57600'
p1217
sS'disable_flushing'
p1218
S'true'
p1219
ssS'build'
p1220
(dp1221
S'core'
p1222
S'robot'
p1223
sS'f_cpu'
p1224
S'16000000L'
p1225
sS'vid'
p1226
S'0x2341'
p1227
sS'pid'
p1228
S'0x8039'
p1229
sS'variant'
p1230
S'robot_motor'
p1231
sS'mcu'
p1232
S'atmega32u4'
p1233
ssS'name'
p1234
S'Arduino Robot Motor'
p1235
saatp1236
Rp1237
(dp1238
S'default'
p1239
S'uno'
p1240
sbtp1241
a(S'ldflags'
p1242
g2
(g3
g4
(lp1243
g6
aS'-Wl,-Os'
p1244
aS'-Wl,--gc-sections'
p1245
atp1246
Rp1247
tp1248
a.